; Function Attrs: mustprogress uwtable
define void @_ZNK6casadi21GetNonzerosParamParam10ad_forwardERKSt6vectorIS1_INS_2MXESaIS2_EESaIS4_EERS6_(ptr nocapture noundef nonnull readonly align 8 dereferenceable(64) %0, ptr nocapture noundef nonnull readonly align 8 dereferenceable(24) %1, ptr nocapture noundef nonnull readonly align 8 dereferenceable(24) %2) unnamed_addr #3 align 2 personality ptr @__gxx_personality_v0 {
  %4 = alloca %"class.casadi::MX", align 8
  %5 = alloca %"class.casadi::MX", align 8
  %6 = getelementptr inbounds i8, ptr %0, i64 32
  %7 = getelementptr inbounds i8, ptr %0, i64 40
  %8 = load ptr, ptr %7, align 8
  %9 = load ptr, ptr %6, align 8
  %10 = ptrtoint ptr %8 to i64
  %11 = ptrtoint ptr %9 to i64
  %12 = sub i64 %10, %11
  %13 = ashr exact i64 %12, 3
  %.not.i.i.i = icmp ugt i64 %13, 1
  br i1 %.not.i.i.i, label %_ZNK6casadi6MXNode3depEx.exit, label %14

14:                                               ; preds = %3
  tail call void (ptr, ...) @_ZSt24__throw_out_of_range_fmtPKcz(ptr noundef nonnull @.str.65, i64 noundef 1, i64 noundef %13) #20
  unreachable

_ZNK6casadi6MXNode3depEx.exit:                    ; preds = %3
  %15 = getelementptr inbounds i8, ptr %9, i64 8
  %.not.i.i.i14.not = icmp eq i64 %12, 16
  br i1 %.not.i.i.i14.not, label %16, label %_ZNK6casadi6MXNode3depEx.exit15

16:                                               ; preds = %_ZNK6casadi6MXNode3depEx.exit
  tail call void (ptr, ...) @_ZSt24__throw_out_of_range_fmtPKcz(ptr noundef nonnull @.str.65, i64 noundef 2, i64 noundef %13) #20
  unreachable

_ZNK6casadi6MXNode3depEx.exit15:                  ; preds = %_ZNK6casadi6MXNode3depEx.exit
  %17 = getelementptr inbounds i8, ptr %9, i64 16
  %18 = getelementptr inbounds i8, ptr %2, i64 8
  %19 = load ptr, ptr %18, align 8
  %20 = load ptr, ptr %2, align 8
  %.not = icmp eq ptr %19, %20
  br i1 %.not, label %._crit_edge, label %.lr.ph

.lr.ph:                                           ; preds = %_ZNK6casadi6MXNode3depEx.exit15, %_ZN6casadi2MXaSERKS0_.exit
  %.01218 = phi i64 [ %38, %_ZN6casadi2MXaSERKS0_.exit ], [ 0, %_ZNK6casadi6MXNode3depEx.exit15 ]
  %21 = load ptr, ptr %7, align 8
  %22 = load ptr, ptr %6, align 8
  %.not.i.i.i16.not = icmp eq ptr %21, %22
  br i1 %.not.i.i.i16.not, label %23, label %_ZNK6casadi6MXNode3depEx.exit17

23:                                               ; preds = %.lr.ph
  call void (ptr, ...) @_ZSt24__throw_out_of_range_fmtPKcz(ptr noundef nonnull @.str.65, i64 noundef 0, i64 noundef 0) #20
  unreachable

_ZNK6casadi6MXNode3depEx.exit17:                  ; preds = %.lr.ph
  %24 = load ptr, ptr %1, align 8
  %25 = getelementptr inbounds %"class.std::vector", ptr %24, i64 %.01218
  %26 = load ptr, ptr %25, align 8
  %27 = call noundef nonnull align 8 dereferenceable(8) ptr @_ZNK6casadi2MX8sparsityEv(ptr noundef nonnull align 8 dereferenceable(8) %22)
  call void @_ZN6casadi2MX7projectERKS0_RKNS_8SparsityEb(ptr dead_on_unwind nonnull writable sret(%"class.casadi::MX") align 8 %4, ptr noundef nonnull align 8 dereferenceable(8) %26, ptr noundef nonnull align 8 dereferenceable(8) %27, i1 noundef zeroext false)
  %28 = invoke noundef ptr @_ZN6casadi2MXptEv(ptr noundef nonnull align 8 dereferenceable(8) %4)
          to label %29 unwind label %46

29:                                               ; preds = %_ZNK6casadi6MXNode3depEx.exit17
  %30 = load ptr, ptr %28, align 8
  %31 = getelementptr inbounds i8, ptr %30, i64 648
  %32 = load ptr, ptr %31, align 8
  invoke void %32(ptr dead_on_unwind nonnull writable sret(%"class.casadi::MX") align 8 %5, ptr noundef nonnull align 8 dereferenceable(64) %28, ptr noundef nonnull align 8 dereferenceable(8) %15, ptr noundef nonnull align 8 dereferenceable(8) %17)
          to label %33 unwind label %46

33:                                               ; preds = %29
  %34 = load ptr, ptr %2, align 8
  %35 = getelementptr inbounds %"class.std::vector", ptr %34, i64 %.01218
  %36 = load ptr, ptr %35, align 8
  %37 = invoke noundef nonnull align 8 dereferenceable(8) ptr @_ZN6casadi12SharedObjectaSERKS0_(ptr noundef nonnull align 8 dereferenceable(8) %36, ptr noundef nonnull align 8 dereferenceable(8) %5)
          to label %_ZN6casadi2MXaSERKS0_.exit unwind label %48

_ZN6casadi2MXaSERKS0_.exit:                       ; preds = %33
  call void @_ZN6casadi2MXD1Ev(ptr noundef nonnull align 8 dereferenceable(8) %5) #18
  call void @_ZN6casadi2MXD1Ev(ptr noundef nonnull align 8 dereferenceable(8) %4) #18
  %38 = add nuw nsw i64 %.01218, 1
  %39 = load ptr, ptr %18, align 8
  %40 = load ptr, ptr %2, align 8
  %41 = ptrtoint ptr %39 to i64
  %42 = ptrtoint ptr %40 to i64
  %43 = sub i64 %41, %42
  %44 = sdiv exact i64 %43, 24
  %45 = icmp ult i64 %38, %44
  br i1 %45, label %.lr.ph, label %._crit_edge, !llvm.loop !45

46:                                               ; preds = %29, %_ZNK6casadi6MXNode3depEx.exit17
  %47 = landingpad { ptr, i32 }
          cleanup
  br label %50

48:                                               ; preds = %33
  %49 = landingpad { ptr, i32 }
          cleanup
  call void @_ZN6casadi2MXD1Ev(ptr noundef nonnull align 8 dereferenceable(8) %5) #18
  br label %50

50:                                               ; preds = %48, %46
  %.pn = phi { ptr, i32 } [ %49, %48 ], [ %47, %46 ]
  call void @_ZN6casadi2MXD1Ev(ptr noundef nonnull align 8 dereferenceable(8) %4) #18
  resume { ptr, i32 } %.pn

._crit_edge:                                      ; preds = %_ZN6casadi2MXaSERKS0_.exit, %_ZNK6casadi6MXNode3depEx.exit15
  ret void
}